Certificate:
    Data:
        Version: 3 (0x2)
        Serial Number: 1 (0x1)
        Signature Algorithm: sha256WithRSAEncryption
        Issuer: C=US, ST=SX, L=XA, O=DTT, OU=CICT, CN=DTT CA/name=admin/emailAddress=admin@dtt.com
        Validity
            Not Before: Apr 26 09:20:23 2020 GMT
            Not After : Apr 24 09:20:23 2030 GMT
        Subject: C=US, ST=SX, L=XA, O=DTT, OU=CICT, CN=admin/name=admin/emailAddress=admin@dtt.com
        Subject Public Key Info:
            Public Key Algorithm: rsaEncryption
                RSA Public-Key: (2048 bit)
                Modulus:
                    00:c0:7e:0e:f7:14:8d:ce:72:59:6f:25:56:f7:8b:
                    5e:47:de:81:ad:80:ef:b1:39:80:21:18:c0:eb:e0:
                    c4:95:06:2b:06:0f:de:e6:34:c4:28:1a:f4:22:49:
                    08:20:56:51:6a:dc:6f:67:44:78:09:54:e6:65:c8:
                    42:42:45:dc:4c:c3:63:8e:ef:88:b3:90:cd:a9:1a:
                    ef:54:2c:2e:e2:f9:3a:df:cd:20:7c:cc:c6:53:c8:
                    10:fd:ac:7e:45:d4:fc:de:49:d4:8f:ca:da:6d:5d:
                    9f:26:11:5a:ae:c9:58:e4:09:cf:e7:a2:6d:4a:4a:
                    61:d7:47:57:62:af:d2:f3:60:c8:e6:ab:94:89:b2:
                    9b:b4:ef:36:0a:68:8a:9f:fb:7e:66:40:25:db:08:
                    cb:cd:54:60:39:9e:d5:51:5c:5d:3d:7c:b2:f5:19:
                    77:4f:cd:17:27:aa:a1:c1:0f:f3:a4:9d:54:58:1a:
                    06:41:06:d3:47:0e:9e:9b:04:85:22:1d:5d:7e:51:
                    9f:f0:4c:c1:19:47:4d:86:31:1b:c3:04:5d:58:03:
                    f7:fa:01:e9:ba:90:e2:ff:f6:92:d0:3f:26:8e:f4:
                    7c:82:cf:b3:18:2f:d6:cf:b0:44:ef:60:a4:c8:7b:
                    31:11:27:33:b8:dc:4e:4b:04:32:2d:c6:43:9c:ce:
                    aa:bd
                Exponent: 65537 (0x10001)
        X509v3 extensions:
            X509v3 Basic Constraints: 
                CA:FALSE
            Netscape Cert Type: 
                SSL Server
            Netscape Comment: 
                Easy-RSA Generated Server Certificate
            X509v3 Subject Key Identifier: 
                70:B2:F2:8B:00:25:ED:3F:23:EA:15:18:B5:66:64:6F:AB:74:6E:BB
            X509v3 Authority Key Identifier: 
                keyid:B7:74:CA:D7:4F:03:CB:EC:A6:71:56:0E:58:5E:E4:87:3F:21:FE:E7
                DirName:/C=US/ST=SX/L=XA/O=DTT/OU=CICT/CN=DTT CA/name=admin/emailAddress=admin@dtt.com
                serial:2C:89:51:2D:18:5E:1C:77:0C:D8:D1:E2:9C:0D:09:0F:B4:B2:F7:51

            X509v3 Extended Key Usage: 
                TLS Web Server Authentication
            X509v3 Key Usage: 
                Digital Signature, Key Encipherment
            X509v3 Subject Alternative Name: 
                DNS:admin
    Signature Algorithm: sha256WithRSAEncryption
         45:fe:fb:a6:6d:cc:db:af:22:ca:ed:13:68:e0:db:1f:36:32:
         e7:2f:52:f8:88:30:52:27:12:ff:74:7e:1b:02:bf:5d:38:65:
         24:69:a3:35:e3:90:ce:70:e5:d9:93:cb:dd:13:89:db:da:6b:
         dc:00:8e:c8:a1:a3:81:64:a1:57:40:09:2f:63:df:12:df:00:
         49:a3:c2:cb:95:42:81:b8:1e:13:a9:13:51:37:ef:4b:81:ba:
         ae:a3:55:59:b8:75:81:8b:0b:32:ca:54:ce:7b:29:f8:49:37:
         75:66:d8:53:d9:16:14:41:7a:38:33:33:12:1c:ff:51:4f:a7:
         4f:78:20:2f:9a:6b:2c:c1:0f:04:20:eb:52:49:24:7f:dc:ad:
         36:2f:74:76:f4:dd:2a:6d:76:cf:3f:25:ef:03:a7:ab:35:23:
         c4:4d:f1:20:6a:b9:0f:45:ab:98:98:8e:52:51:cd:7d:79:ec:
         28:48:88:3b:f5:10:66:20:a0:c7:55:28:92:70:bf:79:8a:f9:
         10:b0:95:66:1e:68:d7:18:b4:ab:2b:ee:d4:87:4e:dd:7f:0f:
         c1:51:ff:64:bc:b8:b6:a4:d7:ba:4a:0f:3a:0d:b0:a1:ba:d1:
         f1:9d:1b:f2:e2:01:73:1e:7d:9d:1d:ae:0d:af:3c:37:9b:14:
         c5:45:92:71
-----BEGIN CERTIFICATE-----
MIIE9TCCA92gAwIBAgIBATANBgkqhkiG9w0BAQsFADCBgzELMAkGA1UEBhMCVVMx
CzAJBgNVBAgTAlNYMQswCQYDVQQHEwJYQTEMMAoGA1UEChMDRFRUMQ0wCwYDVQQL
EwRDSUNUMQ8wDQYDVQQDEwZEVFQgQ0ExDjAMBgNVBCkTBWFkbWluMRwwGgYJKoZI
hvcNAQkBFg1hZG1pbkBkdHQuY29tMB4XDTIwMDQyNjA5MjAyM1oXDTMwMDQyNDA5
MjAyM1owgYIxCzAJBgNVBAYTAlVTMQswCQYDVQQIEwJTWDELMAkGA1UEBxMCWEEx
DDAKBgNVBAoTA0RUVDENMAsGA1UECxMEQ0lDVDEOMAwGA1UEAxMFYWRtaW4xDjAM
BgNVBCkTBWFkbWluMRwwGgYJKoZIhvcNAQkBFg1hZG1pbkBkdHQuY29tMIIBIjAN
BgkqhkiG9w0BAQEFAAOCAQ8AMIIBCgKCAQEAwH4O9xSNznJZbyVW94teR96BrYDv
sTmAIRjA6+DElQYrBg/e5jTEKBr0IkkIIFZRatxvZ0R4CVTmZchCQkXcTMNjju+I
s5DNqRrvVCwu4vk6380gfMzGU8gQ/ax+RdT83knUj8rabV2fJhFarslY5AnP56Jt
Skph10dXYq/S82DI5quUibKbtO82CmiKn/t+ZkAl2wjLzVRgOZ7VUVxdPXyy9Rl3
T80XJ6qhwQ/zpJ1UWBoGQQbTRw6emwSFIh1dflGf8EzBGUdNhjEbwwRdWAP3+gHp
upDi//aS0D8mjvR8gs+zGC/Wz7BE72CkyHsxESczuNxOSwQyLcZDnM6qvQIDAQAB
o4IBcTCCAW0wCQYDVR0TBAIwADARBglghkgBhvhCAQEEBAMCBkAwNAYJYIZIAYb4
QgENBCcWJUVhc3ktUlNBIEdlbmVyYXRlZCBTZXJ2ZXIgQ2VydGlmaWNhdGUwHQYD
VR0OBBYEFHCy8osAJe0/I+oVGLVmZG+rdG67MIHDBgNVHSMEgbswgbiAFLd0ytdP
A8vspnFWDlhe5Ic/If7noYGJpIGGMIGDMQswCQYDVQQGEwJVUzELMAkGA1UECBMC
U1gxCzAJBgNVBAcTAlhBMQwwCgYDVQQKEwNEVFQxDTALBgNVBAsTBENJQ1QxDzAN
BgNVBAMTBkRUVCBDQTEOMAwGA1UEKRMFYWRtaW4xHDAaBgkqhkiG9w0BCQEWDWFk
bWluQGR0dC5jb22CFCyJUS0YXhx3DNjR4pwNCQ+0svdRMBMGA1UdJQQMMAoGCCsG
AQUFBwMBMAsGA1UdDwQEAwIFoDAQBgNVHREECTAHggVhZG1pbjANBgkqhkiG9w0B
AQsFAAOCAQEARf77pm3M268iyu0TaODbHzYy5y9S+IgwUicS/3R+GwK/XThlJGmj
NeOQznDl2ZPL3ROJ29pr3ACOyKGjgWShV0AJL2PfEt8ASaPCy5VCgbgeE6kTUTfv
S4G6rqNVWbh1gYsLMspUznsp+Ek3dWbYU9kWFEF6ODMzEhz/UU+nT3ggL5prLMEP
BCDrUkkkf9ytNi90dvTdKm12zz8l7wOnqzUjxE3xIGq5D0WrmJiOUlHNfXnsKEiI
O/UQZiCgx1UoknC/eYr5ELCVZh5o1xi0qyvu1IdO3X8PwVH/ZLy4tqTXukoPOg2w
obrR8Z0b8uIBcx59nR2uDa88N5sUxUWScQ==
-----END CERTIFICATE-----
