Certificate:
    Data:
        Version: 3 (0x2)
        Serial Number: 2 (0x2)
        Signature Algorithm: sha256WithRSAEncryption
        Issuer: C=US, ST=SX, L=XA, O=DTT, OU=CICT, CN=DTT CA/name=admin/emailAddress=admin@dtt.com
        Validity
            Not Before: Apr 26 09:20:32 2020 GMT
            Not After : Apr 24 09:20:32 2030 GMT
        Subject: C=US, ST=SX, L=XA, O=DTT, OU=CICT, CN=v01/name=v01/emailAddress=admin@dtt.com
        Subject Public Key Info:
            Public Key Algorithm: rsaEncryption
                RSA Public-Key: (2048 bit)
                Modulus:
                    00:b0:73:57:ac:bb:a5:87:19:16:c3:db:c4:20:9b:
                    4f:4f:86:43:da:5a:1f:40:43:8a:a8:03:71:ce:04:
                    fc:94:8e:e9:dc:69:fc:c0:1f:a3:27:99:bf:1f:9e:
                    67:5f:b2:72:9e:58:07:4e:17:86:68:92:cc:0b:ee:
                    05:4f:6d:ac:97:2d:76:16:93:01:13:b3:36:d1:f0:
                    00:b0:d5:80:cb:d4:fd:28:e6:09:08:f9:9b:83:9f:
                    e3:89:6f:e4:bd:2f:16:80:db:0a:dc:9c:c0:b5:3a:
                    58:0e:14:4d:40:de:04:98:c7:ca:d4:e2:8d:9b:57:
                    8c:af:63:10:47:27:37:a6:f1:22:9f:80:02:4d:ee:
                    60:af:53:f8:5f:b5:95:82:2b:72:2c:4a:4c:d5:e1:
                    e4:d0:da:38:7c:34:79:f4:c7:e6:5e:70:fb:bb:d1:
                    94:5d:5b:35:b2:17:67:06:65:bd:d9:e6:32:e8:0d:
                    65:4c:40:f4:52:1b:7e:d2:c4:17:1c:6c:2a:c8:ff:
                    44:c1:af:de:9d:f7:5b:35:d2:eb:ba:63:05:0c:be:
                    80:a1:3a:1e:b2:21:36:d4:27:aa:b5:8d:d6:37:d6:
                    d3:b6:28:3c:3f:0d:63:75:3d:b9:ff:88:e6:68:2d:
                    b0:8d:60:65:0d:ef:b0:25:0e:f8:c2:fb:5b:d9:75:
                    ca:01
                Exponent: 65537 (0x10001)
        X509v3 extensions:
            X509v3 Basic Constraints: 
                CA:FALSE
            Netscape Comment: 
                Easy-RSA Generated Certificate
            X509v3 Subject Key Identifier: 
                DE:C6:56:FA:88:7B:CE:3B:DE:A7:46:EF:94:37:6E:64:7A:F4:0D:9F
            X509v3 Authority Key Identifier: 
                keyid:B7:74:CA:D7:4F:03:CB:EC:A6:71:56:0E:58:5E:E4:87:3F:21:FE:E7
                DirName:/C=US/ST=SX/L=XA/O=DTT/OU=CICT/CN=DTT CA/name=admin/emailAddress=admin@dtt.com
                serial:2C:89:51:2D:18:5E:1C:77:0C:D8:D1:E2:9C:0D:09:0F:B4:B2:F7:51

            X509v3 Extended Key Usage: 
                TLS Web Client Authentication
            X509v3 Key Usage: 
                Digital Signature
            X509v3 Subject Alternative Name: 
                DNS:v01
    Signature Algorithm: sha256WithRSAEncryption
         04:8b:af:83:cc:0d:56:dd:84:53:ca:a6:07:3c:21:e6:ca:49:
         f3:51:ca:0c:51:5c:fc:0e:7c:a1:92:1c:1b:db:43:ce:36:88:
         b6:aa:5f:0c:c1:3b:44:f5:01:30:e1:d9:e7:c2:fe:9d:a3:05:
         a0:71:70:9a:03:1c:49:04:37:8e:c5:67:28:71:dd:79:3b:97:
         14:7f:4b:f0:2e:b9:a0:30:06:f6:40:2a:a9:b7:b1:03:a9:be:
         aa:68:53:eb:58:bf:53:ad:b4:ae:ec:71:93:92:6c:1b:24:a7:
         89:31:75:06:30:8d:66:c5:3c:a9:5d:ea:b5:60:f6:bc:58:50:
         b2:cf:02:73:77:54:74:2c:65:da:a2:ec:eb:bb:48:88:0a:9a:
         f6:16:07:4f:45:aa:f7:73:1c:b7:bc:43:76:9d:88:a5:7e:40:
         a9:97:66:4d:ce:41:4d:60:78:58:ff:0b:39:42:81:cb:bc:66:
         03:f9:5e:9a:9c:40:eb:5e:6d:38:a2:38:cf:c7:4e:dd:83:ea:
         2e:51:fa:cd:fa:1f:90:63:da:8a:92:e9:88:d8:8c:89:d9:79:
         88:87:7f:cb:cc:b2:09:cb:7b:c8:10:5d:47:49:d2:cf:aa:eb:
         5a:36:1e:c9:75:4b:d1:a1:d8:73:8a:50:fd:96:8b:12:b5:24:
         58:a3:94:a6
-----BEGIN CERTIFICATE-----
MIIE1DCCA7ygAwIBAgIBAjANBgkqhkiG9w0BAQsFADCBgzELMAkGA1UEBhMCVVMx
CzAJBgNVBAgTAlNYMQswCQYDVQQHEwJYQTEMMAoGA1UEChMDRFRUMQ0wCwYDVQQL
EwRDSUNUMQ8wDQYDVQQDEwZEVFQgQ0ExDjAMBgNVBCkTBWFkbWluMRwwGgYJKoZI
hvcNAQkBFg1hZG1pbkBkdHQuY29tMB4XDTIwMDQyNjA5MjAzMloXDTMwMDQyNDA5
MjAzMlowfjELMAkGA1UEBhMCVVMxCzAJBgNVBAgTAlNYMQswCQYDVQQHEwJYQTEM
MAoGA1UEChMDRFRUMQ0wCwYDVQQLEwRDSUNUMQwwCgYDVQQDEwN2MDExDDAKBgNV
BCkTA3YwMTEcMBoGCSqGSIb3DQEJARYNYWRtaW5AZHR0LmNvbTCCASIwDQYJKoZI
hvcNAQEBBQADggEPADCCAQoCggEBALBzV6y7pYcZFsPbxCCbT0+GQ9paH0BDiqgD
cc4E/JSO6dxp/MAfoyeZvx+eZ1+ycp5YB04XhmiSzAvuBU9trJctdhaTAROzNtHw
ALDVgMvU/SjmCQj5m4Of44lv5L0vFoDbCtycwLU6WA4UTUDeBJjHytTijZtXjK9j
EEcnN6bxIp+AAk3uYK9T+F+1lYIrcixKTNXh5NDaOHw0efTH5l5w+7vRlF1bNbIX
ZwZlvdnmMugNZUxA9FIbftLEFxxsKsj/RMGv3p33WzXS67pjBQy+gKE6HrIhNtQn
qrWN1jfW07YoPD8NY3U9uf+I5mgtsI1gZQ3vsCUO+ML7W9l1ygECAwEAAaOCAVUw
ggFRMAkGA1UdEwQCMAAwLQYJYIZIAYb4QgENBCAWHkVhc3ktUlNBIEdlbmVyYXRl
ZCBDZXJ0aWZpY2F0ZTAdBgNVHQ4EFgQU3sZW+oh7zjvep0bvlDduZHr0DZ8wgcMG
A1UdIwSBuzCBuIAUt3TK108Dy+ymcVYOWF7khz8h/uehgYmkgYYwgYMxCzAJBgNV
BAYTAlVTMQswCQYDVQQIEwJTWDELMAkGA1UEBxMCWEExDDAKBgNVBAoTA0RUVDEN
MAsGA1UECxMEQ0lDVDEPMA0GA1UEAxMGRFRUIENBMQ4wDAYDVQQpEwVhZG1pbjEc
MBoGCSqGSIb3DQEJARYNYWRtaW5AZHR0LmNvbYIULIlRLRheHHcM2NHinA0JD7Sy
91EwEwYDVR0lBAwwCgYIKwYBBQUHAwIwCwYDVR0PBAQDAgeAMA4GA1UdEQQHMAWC
A3YwMTANBgkqhkiG9w0BAQsFAAOCAQEABIuvg8wNVt2EU8qmBzwh5spJ81HKDFFc
/A58oZIcG9tDzjaItqpfDME7RPUBMOHZ58L+naMFoHFwmgMcSQQ3jsVnKHHdeTuX
FH9L8C65oDAG9kAqqbexA6m+qmhT61i/U620ruxxk5JsGySniTF1BjCNZsU8qV3q
tWD2vFhQss8Cc3dUdCxl2qLs67tIiAqa9hYHT0Wq93Mct7xDdp2IpX5AqZdmTc5B
TWB4WP8LOUKBy7xmA/lempxA615tOKI4z8dO3YPqLlH6zfofkGPaipLpiNiMidl5
iId/y8yyCct7yBBdR0nSz6rrWjYeyXVL0aHYc4pQ/ZaLErUkWKOUpg==
-----END CERTIFICATE-----
